; ModuleID = '62/403.c'
source_filename = "62/403.c"
target datalayout = "e-m:e-p270:32:32-p271:32:32-p272:64:64-i64:64-f80:128-n8:16:32:64-S128"
target triple = "x86_64-pc-linux-gnu"

@.str = private unnamed_addr constant [3 x i8] c"%s\00", align 1

; Function Attrs: noinline nounwind uwtable
define dso_local i32 @main() #0 {
  %1 = alloca i32, align 4
  %2 = alloca i32, align 4
  %3 = alloca i32, align 4
  %4 = alloca i32, align 4
  %5 = alloca [201 x i8], align 16
  %6 = alloca [201 x i8], align 16
  store i32 0, i32* %1, align 4
  %7 = getelementptr inbounds [201 x i8], [201 x i8]* %5, i64 0, i64 0
  %8 = call i32 (i8*, ...) bitcast (i32 (...)* @gets to i32 (i8*, ...)*)(i8* %7)
  store i32 0, i32* %2, align 4
  store i32 0, i32* %3, align 4
  br label %9

9:                                                ; preds = %54, %0
  %10 = load i32, i32* %2, align 4
  %11 = sext i32 %10 to i64
  %12 = getelementptr inbounds [201 x i8], [201 x i8]* %5, i64 0, i64 %11
  %13 = load i8, i8* %12, align 1
  %14 = icmp ne i8 %13, 0
  br i1 %14, label %15, label %57

15:                                               ; preds = %9
  %16 = load i32, i32* %2, align 4
  %17 = sext i32 %16 to i64
  %18 = getelementptr inbounds [201 x i8], [201 x i8]* %5, i64 0, i64 %17
  %19 = load i8, i8* %18, align 1
  %20 = sext i8 %19 to i32
  %21 = icmp eq i32 %20, 32
  br i1 %21, label %22, label %43

22:                                               ; preds = %15
  %23 = load i32, i32* %2, align 4
  %24 = add nsw i32 %23, 1
  %25 = sext i32 %24 to i64
  %26 = getelementptr inbounds [201 x i8], [201 x i8]* %5, i64 0, i64 %25
  %27 = load i8, i8* %26, align 1
  %28 = sext i8 %27 to i32
  %29 = icmp eq i32 %28, 32
  br i1 %29, label %30, label %32

30:                                               ; preds = %22
  %31 = load i32, i32* %3, align 4
  store i32 %31, i32* %3, align 4
  br label %42

32:                                               ; preds = %22
  %33 = load i32, i32* %2, align 4
  %34 = sext i32 %33 to i64
  %35 = getelementptr inbounds [201 x i8], [201 x i8]* %5, i64 0, i64 %34
  %36 = load i8, i8* %35, align 1
  %37 = load i32, i32* %3, align 4
  %38 = sext i32 %37 to i64
  %39 = getelementptr inbounds [201 x i8], [201 x i8]* %6, i64 0, i64 %38
  store i8 %36, i8* %39, align 1
  %40 = load i32, i32* %3, align 4
  %41 = add nsw i32 %40, 1
  store i32 %41, i32* %3, align 4
  br label %42

42:                                               ; preds = %32, %30
  br label %53

43:                                               ; preds = %15
  %44 = load i32, i32* %2, align 4
  %45 = sext i32 %44 to i64
  %46 = getelementptr inbounds [201 x i8], [201 x i8]* %5, i64 0, i64 %45
  %47 = load i8, i8* %46, align 1
  %48 = load i32, i32* %3, align 4
  %49 = sext i32 %48 to i64
  %50 = getelementptr inbounds [201 x i8], [201 x i8]* %6, i64 0, i64 %49
  store i8 %47, i8* %50, align 1
  %51 = load i32, i32* %3, align 4
  %52 = add nsw i32 %51, 1
  store i32 %52, i32* %3, align 4
  br label %53

53:                                               ; preds = %43, %42
  br label %54

54:                                               ; preds = %53
  %55 = load i32, i32* %2, align 4
  %56 = add nsw i32 %55, 1
  store i32 %56, i32* %2, align 4
  br label %9

57:                                               ; preds = %9
  %58 = load i32, i32* %3, align 4
  %59 = sext i32 %58 to i64
  %60 = getelementptr inbounds [201 x i8], [201 x i8]* %6, i64 0, i64 %59
  store i8 0, i8* %60, align 1
  %61 = getelementptr inbounds [201 x i8], [201 x i8]* %6, i64 0, i64 0
  %62 = call i32 (i8*, ...) @printf(i8* getelementptr inbounds ([3 x i8], [3 x i8]* @.str, i64 0, i64 0), i8* %61)
  ret i32 0
}

declare dso_local i32 @gets(...) #1

declare dso_local i32 @printf(i8*, ...) #1


!llvm.module.flags = !{!0}
!llvm.ident = !{!1}

!0 = !{i32 1, !"wchar_size", i32 4}
!1 = !{!"clang version 10.0.0-4ubuntu1 "}
