; ModuleID = 'source-C-CXX/61/403.c'
source_filename = "source-C-CXX/61/403.c"
target datalayout = "e-m:e-p270:32:32-p271:32:32-p272:64:64-i64:64-f80:128-n8:16:32:64-S128"
target triple = "x86_64-pc-linux-gnu"

@.str = private unnamed_addr constant [3 x i8] c"%s\00", align 1

; Function Attrs: nounwind sspstrong uwtable
define dso_local i32 @main() local_unnamed_addr #0 {
  %1 = alloca [201 x i8], align 16
  %2 = alloca [201 x i8], align 16
  %3 = getelementptr inbounds [201 x i8], [201 x i8]* %1, i64 0, i64 0
  call void @llvm.lifetime.start.p0i8(i64 201, i8* nonnull %3) #4
  %4 = getelementptr inbounds [201 x i8], [201 x i8]* %2, i64 0, i64 0
  call void @llvm.lifetime.start.p0i8(i64 201, i8* nonnull %4) #4
  %5 = call i32 (i8*, ...) bitcast (i32 (...)* @gets to i32 (i8*, ...)*)(i8* nonnull %3) #4
  br label %6

6:                                                ; preds = %25, %0
  %7 = phi i64 [ 0, %0 ], [ %26, %25 ]
  %8 = phi i32 [ 0, %0 ], [ %27, %25 ]
  br label %9

9:                                                ; preds = %6, %13
  %10 = phi i64 [ %14, %13 ], [ %7, %6 ]
  %11 = getelementptr inbounds [201 x i8], [201 x i8]* %1, i64 0, i64 %10
  %12 = load i8, i8* %11, align 1, !tbaa !5
  switch i8 %12, label %21 [
    i8 0, label %28
    i8 32, label %13
  ]

13:                                               ; preds = %9
  %14 = add nuw i64 %10, 1
  %15 = getelementptr inbounds [201 x i8], [201 x i8]* %1, i64 0, i64 %14
  %16 = load i8, i8* %15, align 1, !tbaa !5
  %17 = icmp eq i8 %16, 32
  br i1 %17, label %9, label %18, !llvm.loop !8

18:                                               ; preds = %13
  %19 = zext i32 %8 to i64
  %20 = getelementptr inbounds [201 x i8], [201 x i8]* %2, i64 0, i64 %19
  store i8 32, i8* %20, align 1, !tbaa !5
  br label %25

21:                                               ; preds = %9
  %22 = zext i32 %8 to i64
  %23 = getelementptr inbounds [201 x i8], [201 x i8]* %2, i64 0, i64 %22
  store i8 %12, i8* %23, align 1, !tbaa !5
  %24 = add nuw i64 %10, 1
  br label %25

25:                                               ; preds = %21, %18
  %26 = phi i64 [ %14, %18 ], [ %24, %21 ]
  %27 = add nuw nsw i32 %8, 1
  br label %6, !llvm.loop !8

28:                                               ; preds = %9
  %29 = zext i32 %8 to i64
  %30 = getelementptr inbounds [201 x i8], [201 x i8]* %2, i64 0, i64 %29
  store i8 0, i8* %30, align 1, !tbaa !5
  %31 = call i32 (i8*, ...) @printf(i8* nonnull dereferenceable(1) getelementptr inbounds ([3 x i8], [3 x i8]* @.str, i64 0, i64 0), i8* nonnull %4)
  call void @llvm.lifetime.end.p0i8(i64 201, i8* nonnull %4) #4
  call void @llvm.lifetime.end.p0i8(i64 201, i8* nonnull %3) #4
  ret i32 0
}

; Function Attrs: argmemonly mustprogress nofree nosync nounwind willreturn
declare void @llvm.lifetime.start.p0i8(i64 immarg, i8* nocapture) #1

declare i32 @gets(...) local_unnamed_addr #2

; Function Attrs: nofree nounwind
declare noundef i32 @printf(i8* nocapture noundef readonly, ...) local_unnamed_addr #3

; Function Attrs: argmemonly mustprogress nofree nosync nounwind willreturn
declare void @llvm.lifetime.end.p0i8(i64 immarg, i8* nocapture) #1


!llvm.module.flags = !{!0, !1, !2, !3}
!llvm.ident = !{!4}

!0 = !{i32 1, !"wchar_size", i32 4}
!1 = !{i32 7, !"PIC Level", i32 2}
!2 = !{i32 7, !"PIE Level", i32 2}
!3 = !{i32 7, !"uwtable", i32 1}
!4 = !{!"clang version 13.0.0"}
!5 = !{!6, !6, i64 0}
!6 = !{!"omnipotent char", !7, i64 0}
!7 = !{!"Simple C/C++ TBAA"}
!8 = distinct !{!8, !9}
!9 = !{!"llvm.loop.mustprogress"}
